Certificate:
    Data:
        Version: 3 (0x2)
        Serial Number:
            30:8e:0b:16:f4:02:4b:ea:93:2c:a6:f9:c0:cf:41:1d
        Signature Algorithm: sha256WithRSAEncryption
        Issuer: CN=Easy-RSA CA
        Validity
            Not Before: Mar 28 11:24:42 2021 GMT
            Not After : Jul  1 11:24:42 2023 GMT
        Subject: CN=server
        Subject Public Key Info:
            Public Key Algorithm: rsaEncryption
                RSA Public-Key: (2048 bit)
                Modulus:
                    00:ae:e7:e9:e6:80:98:9e:7a:cf:72:a9:26:89:5e:
                    f0:80:83:72:8a:0e:b0:b9:d8:39:57:0f:98:e8:2c:
                    8a:0e:38:87:b8:9e:1b:89:b5:62:1a:30:a3:91:61:
                    50:7d:be:49:57:d1:30:d8:41:c7:f2:cc:ae:14:0b:
                    61:f1:2c:1c:70:67:50:a7:0e:a9:ee:27:d2:72:66:
                    13:d4:14:c1:3d:11:9f:10:7b:49:9c:c9:6c:0c:a1:
                    16:86:e6:ec:31:e4:64:2e:0a:a4:d9:68:62:ac:28:
                    4c:dc:fc:2c:50:9b:26:53:96:61:4c:71:e9:52:68:
                    c3:04:4f:da:90:99:52:74:7b:e8:7e:26:77:6d:fb:
                    bf:2a:7f:60:7a:c8:e5:52:e8:27:21:06:90:ff:7d:
                    1d:56:06:0e:1b:fd:41:fc:1f:5b:8d:6c:84:d9:2b:
                    48:eb:15:ec:aa:b2:be:03:8e:cc:10:4a:90:0e:10:
                    e2:5f:e1:cb:82:d8:f8:37:38:c0:ee:67:23:1a:d9:
                    09:00:fe:53:13:e2:79:74:af:f4:88:9d:d1:97:68:
                    88:20:90:d0:60:ef:fe:50:94:39:e8:e3:84:c8:7a:
                    51:88:50:95:82:99:80:6f:ef:60:86:9d:61:2f:33:
                    c2:35:80:45:af:79:fd:2c:fe:4e:81:ff:dd:53:91:
                    a6:ad
                Exponent: 65537 (0x10001)
        X509v3 extensions:
            X509v3 Basic Constraints: 
                CA:FALSE
            X509v3 Subject Key Identifier: 
                89:63:9C:E4:E2:33:8C:A4:C9:5C:D9:2D:69:D4:43:09:E0:1F:4E:CF
            X509v3 Authority Key Identifier: 
                keyid:A4:4D:F1:A4:93:64:2C:98:69:21:C3:BC:F0:E7:47:65:FA:BA:55:A4
                DirName:/CN=Easy-RSA CA
                serial:74:18:0A:A3:42:F2:F8:6F:BA:F2:00:D4:01:66:B5:D5:E2:29:80:4A

            X509v3 Extended Key Usage: 
                TLS Web Server Authentication
            X509v3 Key Usage: 
                Digital Signature, Key Encipherment
            X509v3 Subject Alternative Name: 
                DNS:server
    Signature Algorithm: sha256WithRSAEncryption
         7a:96:f0:62:1b:3d:b4:2d:f6:d4:4a:4f:5a:bb:6b:e5:a4:d7:
         7a:e6:0f:75:fb:40:34:6d:77:70:00:44:2a:68:b2:97:ac:68:
         3f:03:4d:2b:2a:a2:44:0b:2d:d0:bd:f8:29:29:89:f0:ff:dc:
         4c:d9:1c:13:b4:5e:71:06:d3:c6:7a:bc:45:23:cd:64:ac:16:
         58:c7:e4:a2:9d:9a:1c:1c:c4:3f:0a:ba:b1:85:49:05:bb:51:
         a9:fd:1f:e2:fc:e1:fe:05:73:96:04:f7:cc:73:41:31:a3:e9:
         ac:2f:d5:8c:14:89:f3:24:00:4a:1b:d7:10:df:d7:d5:8a:c8:
         80:b0:0d:4a:f4:4f:6f:4a:8f:44:47:99:bb:74:d3:ef:cb:1e:
         dd:a4:02:1b:d9:a8:4b:3d:74:d8:66:b4:d9:9d:54:76:d9:fb:
         43:a2:b0:ac:d7:19:a0:6f:e4:08:5b:4d:76:3e:44:18:62:fc:
         6a:57:c2:1e:e5:f8:5e:54:4d:84:60:98:6d:25:c7:aa:9c:1a:
         f7:fd:af:88:7c:98:0e:17:64:90:0f:9c:66:ad:e9:70:0c:84:
         d3:5f:fd:15:12:76:9a:8c:64:70:f7:43:20:e9:89:c8:a1:ca:
         6f:8a:53:39:ea:97:96:97:24:07:8a:19:29:4c:2a:56:98:9f:
         5e:be:4f:a9
-----BEGIN CERTIFICATE-----
MIIDZzCCAk+gAwIBAgIQMI4LFvQCS+qTLKb5wM9BHTANBgkqhkiG9w0BAQsFADAW
MRQwEgYDVQQDDAtFYXN5LVJTQSBDQTAeFw0yMTAzMjgxMTI0NDJaFw0yMzA3MDEx
MTI0NDJaMBExDzANBgNVBAMMBnNlcnZlcjCCASIwDQYJKoZIhvcNAQEBBQADggEP
ADCCAQoCggEBAK7n6eaAmJ56z3KpJole8ICDcooOsLnYOVcPmOgsig44h7ieG4m1
Yhowo5FhUH2+SVfRMNhBx/LMrhQLYfEsHHBnUKcOqe4n0nJmE9QUwT0RnxB7SZzJ
bAyhFobm7DHkZC4KpNloYqwoTNz8LFCbJlOWYUxx6VJowwRP2pCZUnR76H4md237
vyp/YHrI5VLoJyEGkP99HVYGDhv9QfwfW41shNkrSOsV7KqyvgOOzBBKkA4Q4l/h
y4LY+Dc4wO5nIxrZCQD+UxPieXSv9Iid0ZdoiCCQ0GDv/lCUOejjhMh6UYhQlYKZ
gG/vYIadYS8zwjWARa95/Sz+ToH/3VORpq0CAwEAAaOBtTCBsjAJBgNVHRMEAjAA
MB0GA1UdDgQWBBSJY5zk4jOMpMlc2S1p1EMJ4B9OzzBRBgNVHSMESjBIgBSkTfGk
k2QsmGkhw7zw50dl+rpVpKEapBgwFjEUMBIGA1UEAwwLRWFzeS1SU0EgQ0GCFHQY
CqNC8vhvuvIA1AFmtdXiKYBKMBMGA1UdJQQMMAoGCCsGAQUFBwMBMAsGA1UdDwQE
AwIFoDARBgNVHREECjAIggZzZXJ2ZXIwDQYJKoZIhvcNAQELBQADggEBAHqW8GIb
PbQt9tRKT1q7a+Wk13rmD3X7QDRtd3AARCpospesaD8DTSsqokQLLdC9+CkpifD/
3EzZHBO0XnEG08Z6vEUjzWSsFljH5KKdmhwcxD8KurGFSQW7Uan9H+L84f4Fc5YE
98xzQTGj6awv1YwUifMkAEob1xDf19WKyICwDUr0T29Kj0RHmbt00+/LHt2kAhvZ
qEs9dNhmtNmdVHbZ+0OisKzXGaBv5AhbTXY+RBhi/GpXwh7l+F5UTYRgmG0lx6qc
Gvf9r4h8mA4XZJAPnGat6XAMhNNf/RUSdpqMZHD3QyDpicihym+KUznql5aXJAeK
GSlMKlaYn16+T6k=
-----END CERTIFICATE-----
