Certificate:
    Data:
        Version: 3 (0x2)
        Serial Number:
            e1:8b:a0:21:3f:4a:dd:7b:1b:26:66:69:98:64:09:fd
        Signature Algorithm: sha256WithRSAEncryption
        Issuer: CN=Easy-RSA CA
        Validity
            Not Before: Apr  2 15:50:36 2024 GMT
            Not After : Mar 31 15:50:36 2034 GMT
        Subject: CN=server
        Subject Public Key Info:
            Public Key Algorithm: rsaEncryption
                Public-Key: (2048 bit)
                Modulus:
                    00:ad:2d:18:a2:5c:15:ce:1f:39:dc:4a:6c:cb:8a:
                    c5:86:d6:51:ec:3f:21:9a:2f:0a:50:82:89:f0:50:
                    47:de:2d:5b:a3:ee:e1:62:86:88:be:20:83:bc:b9:
                    c9:b4:b2:d1:0e:41:b6:1a:cb:ea:47:3b:09:06:36:
                    2f:a2:b1:8f:ec:e6:7a:b1:64:63:89:21:1a:4c:38:
                    d6:1d:a4:2b:1f:20:8c:56:df:9c:5b:1d:e9:3c:8f:
                    d3:04:99:0f:90:8a:b6:7c:75:dc:a4:08:ca:39:05:
                    70:77:be:50:31:3b:b2:63:45:b7:ab:1e:8f:3e:70:
                    39:1b:8e:18:57:08:15:b1:4e:f5:69:0c:f7:bf:0a:
                    25:ad:9a:1e:64:c1:5f:a1:10:f8:91:6e:5d:04:bd:
                    a4:e5:11:13:b9:de:61:65:79:f1:1d:1f:09:38:0a:
                    45:c5:a9:6e:c3:c7:a9:e6:f4:b9:37:ca:71:12:e3:
                    87:14:37:96:d8:ad:e6:fc:8e:16:ad:f6:5f:3b:bd:
                    fa:45:36:6f:99:96:09:ce:3c:66:9a:7b:c8:a7:2c:
                    24:cb:ec:0e:92:c0:32:62:37:f0:21:76:cd:ca:c0:
                    2c:8c:41:d1:36:b4:1f:5d:fe:4d:5c:d0:b4:3e:fa:
                    e6:fb:0f:74:21:60:30:dd:43:9c:4f:e8:aa:ae:f1:
                    80:41
                Exponent: 65537 (0x10001)
        X509v3 extensions:
            X509v3 Basic Constraints:
                CA:FALSE
            X509v3 Subject Key Identifier:
                A6:AF:C6:35:5D:86:D9:E4:1D:FA:78:B7:A8:A0:5D:F5:FB:4E:C2:C1
            X509v3 Authority Key Identifier:
                keyid:BE:61:A7:B6:84:4A:62:B3:15:EC:5E:31:DB:D4:97:0A:32:DE:6E:1C
                DirName:/CN=Easy-RSA CA
                serial:E1:F8:7A:03:2F:03:9E:CE:71:58:39:3A:1C:FB:FB:67:25:51:67
            X509v3 Extended Key Usage:
                TLS Web Server Authentication
            X509v3 Key Usage:
                Digital Signature, Key Encipherment
            X509v3 Subject Alternative Name:
                DNS:server
    Signature Algorithm: sha256WithRSAEncryption
    Signature Value:
        a3:0f:5b:18:52:26:1f:86:05:2e:e5:9e:dd:77:5a:5f:9f:1f:
        8a:00:dc:c2:d1:96:08:7a:4d:47:55:72:65:6f:a8:05:76:b8:
        22:7a:00:0d:79:41:b1:00:1a:b9:e4:5c:a2:14:07:cf:a4:4b:
        71:e3:c9:ab:19:cb:87:45:ac:53:b2:d5:62:10:e0:51:91:f2:
        d9:de:fa:2a:27:08:5d:85:45:62:da:5b:b4:f4:3e:99:e9:9f:
        09:7d:f1:b0:dc:69:f9:62:ce:b5:09:a1:99:ef:41:c1:41:40:
        a2:65:9c:df:72:99:45:da:e8:98:e6:2e:a8:ae:83:69:18:f3:
        f7:d5:28:81:80:00:75:fe:b4:03:66:ae:40:62:7d:fa:23:b8:
        f2:23:e8:a0:39:bd:df:5d:36:91:12:41:6b:e5:1f:79:37:17:
        46:6a:02:45:7a:95:57:99:02:65:e8:17:9b:6e:2a:be:79:7e:
        6d:cb:2c:32:d2:9c:c9:09:d5:cd:94:3f:e5:8f:64:52:f0:09:
        0e:d3:3e:f8:af:ea:ef:1c:88:48:69:95:fd:c3:f3:33:08:b8:
        aa:7a:6e:a4:97:1a:11:1c:3e:0d:2d:1d:78:9d:7c:6b:3e:fc:
        25:de:79:92:f8:e2:55:c0:dc:d9:1c:cd:d7:61:b6:19:86:c8:
        6e:1c:8a:21
-----BEGIN CERTIFICATE-----
MIIDaDCCAlCgAwIBAgIRAOGLoCE/St17GyZmaZhkCf0wDQYJKoZIhvcNAQELBQAw
FjEUMBIGA1UEAwwLRWFzeS1SU0EgQ0EwHhcNMjQwNDAyMTU1MDM2WhcNMzQwMzMx
MTU1MDM2WjARMQ8wDQYDVQQDDAZzZXJ2ZXIwggEiMA0GCSqGSIb3DQEBAQUAA4IB
DwAwggEKAoIBAQCtLRiiXBXOHzncSmzLisWG1lHsPyGaLwpQgonwUEfeLVuj7uFi
hoi+IIO8ucm0stEOQbYay+pHOwkGNi+isY/s5nqxZGOJIRpMONYdpCsfIIxW35xb
Hek8j9MEmQ+QirZ8ddykCMo5BXB3vlAxO7JjRberHo8+cDkbjhhXCBWxTvVpDPe/
CiWtmh5kwV+hEPiRbl0EvaTlERO53mFlefEdHwk4CkXFqW7Dx6nm9Lk3ynES44cU
N5bYreb8jhat9l87vfpFNm+ZlgnOPGaae8inLCTL7A6SwDJiN/Ahds3KwCyMQdE2
tB9d/k1c0LQ++ub7D3QhYDDdQ5xP6Kqu8YBBAgMBAAGjgbUwgbIwCQYDVR0TBAIw
ADAdBgNVHQ4EFgQUpq/GNV2G2eQd+ni3qKBd9ftOwsEwUQYDVR0jBEowSIAUvmGn
toRKYrMV7F4x29SXCjLebhyhGqQYMBYxFDASBgNVBAMMC0Vhc3ktUlNBIENBghQA
4fh6Ay8Dns5xWDk6HPv7ZyVRZzATBgNVHSUEDDAKBggrBgEFBQcDATALBgNVHQ8E
BAMCBaAwEQYDVR0RBAowCIIGc2VydmVyMA0GCSqGSIb3DQEBCwUAA4IBAQCjD1sY
UiYfhgUu5Z7dd1pfnx+KANzC0ZYIek1HVXJlb6gFdrgiegANeUGxABq55FyiFAfP
pEtx48mrGcuHRaxTstViEOBRkfLZ3voqJwhdhUVi2lu09D6Z6Z8JffGw3Gn5Ys61
CaGZ70HBQUCiZZzfcplF2uiY5i6oroNpGPP31SiBgAB1/rQDZq5AYn36I7jyI+ig
Ob3fXTaREkFr5R95NxdGagJFepVXmQJl6Bebbiq+eX5tyywy0pzJCdXNlD/lj2RS
8AkO0z74r+rvHIhIaZX9w/MzCLiqem6klxoRHD4NLR14nXxrPvwl3nmS+OJVwNzZ
HM3XYbYZhshuHIoh
-----END CERTIFICATE-----
